target datalayout = "e-m:e-p270:32:32-p271:32:32-p272:64:64-i64:64-i128:128-f80:128-n8:16:32:64-S128"
target triple = "x86_64-pc-linux-gnu"

%struct.settings = type { i64, i32, i32, i32, ptr, i32, i32, i32, ptr, ptr, i32, double, i32, i32, i32, i8, i32, i32, i8, i32, i32, i32, i32, i32, i32, i8, i8, i8, i8, i8, i8, i8, i32, i32, double, double, i32, i32, i8, i32, i8, i8, ptr, i32, i32, i32, i32, double, double, i32, i8, i32, i32, i32, i32, i32, i8, i8, i8, ptr, i32, i32, i32, i32, i32, i32, i32, i32, i32, i32, double, i8, i32, i32, ptr, i32 }
%struct.conn = type { ptr, i32, i8, i8, i8, i8, i8, i8, i8, i8, ptr, i32, i32, i32, %struct.event, i16, i16, ptr, ptr, i32, i32, ptr, ptr, ptr, i32, ptr, i32, i32, i32, i32, i32, i32, i32, %struct.sockaddr_in6, i32, i8, %struct.anon.8, %union.protocol_binary_request_header, i64, i64, i16, i32, i32, ptr, ptr, ptr, ptr, ptr, ptr }
%struct.event = type { %struct.event_callback, %union.anon.0, i32, ptr, %union.anon.2, i16, i16, %struct.timeval }
%struct.event_callback = type { %struct.anon, i16, i8, i8, %union.anon, ptr }
%struct.anon = type { ptr, ptr }
%union.anon = type { ptr }
%union.anon.0 = type { %struct.anon.1 }
%struct.anon.1 = type { ptr, ptr }
%union.anon.2 = type { %struct.anon.3 }
%struct.anon.3 = type { %struct.anon.4, %struct.timeval }
%struct.anon.4 = type { ptr, ptr }
%struct.timeval = type { i64, i64 }
%struct.sockaddr_in6 = type { i16, i16, i32, %struct.in6_addr, i32 }
%struct.in6_addr = type { %union.anon.7 }
%union.anon.7 = type { [4 x i32] }
%struct.anon.8 = type { ptr, i64, i64 }
%union.protocol_binary_request_header = type { %struct.anon.9 }
%struct.anon.9 = type { i8, i8, i16, i8, i8, i16, i32, i32, i64 }

@stderr = external global ptr, align 8
@settings = external global %struct.settings, align 8
@.str.6 = private unnamed_addr constant [14 x i8] c"Out of memory\00", align 1
@.str.7 = private unnamed_addr constant [16 x i8] c"Unknown command\00", align 1
@.str.8 = private unnamed_addr constant [10 x i8] c"Not found\00", align 1
@.str.9 = private unnamed_addr constant [18 x i8] c"Invalid arguments\00", align 1
@.str.10 = private unnamed_addr constant [21 x i8] c"Data exists for key.\00", align 1
@.str.11 = private unnamed_addr constant [11 x i8] c"Too large.\00", align 1
@.str.12 = private unnamed_addr constant [47 x i8] c"Non-numeric server-side value for incr or decr\00", align 1
@.str.13 = private unnamed_addr constant [12 x i8] c"Not stored.\00", align 1
@.str.14 = private unnamed_addr constant [14 x i8] c"Auth failure.\00", align 1
@.str.15 = private unnamed_addr constant [16 x i8] c"UNHANDLED ERROR\00", align 1
@.str.16 = private unnamed_addr constant [25 x i8] c">%d UNHANDLED ERROR: %d\0A\00", align 1
@.str.17 = private unnamed_addr constant [26 x i8] c">%d Writing an error: %s\0A\00", align 1
@.str.26 = private unnamed_addr constant [33 x i8] c"Failed to initialize SASL conn.\0A\00", align 1
@.str.59 = private unnamed_addr constant [33 x i8] c"Failed to list SASL mechanisms.\0A\00", align 1

; Function Attrs: nounwind uwtable
define internal void @write_bin_response(ptr noundef %0, ptr noundef %1, i32 noundef %2, i32 noundef %3, i32 noundef %4) #0 {
  %6 = alloca ptr, align 8
  %7 = alloca ptr, align 8
  %8 = alloca i32, align 4
  %9 = alloca i32, align 4
  %10 = alloca i32, align 4
  %11 = alloca ptr, align 8
  store ptr %0, ptr %6, align 8, !tbaa !4
  store ptr %1, ptr %7, align 8, !tbaa !70
  store i32 %2, ptr %8, align 4, !tbaa !30
  store i32 %3, ptr %9, align 4, !tbaa !30
  store i32 %4, ptr %10, align 4, !tbaa !30
  %12 = load ptr, ptr %6, align 8, !tbaa !4
  %13 = getelementptr inbounds nuw %struct.conn, ptr %12, i32 0, i32 35
  %14 = load i8, ptr %13, align 4, !tbaa !79, !range !58, !noundef !59
  %15 = trunc i8 %14 to i1
  br i1 %15, label %16, label %28

16:                                               ; preds = %5
  %17 = load ptr, ptr %6, align 8, !tbaa !4
  %18 = getelementptr inbounds nuw %struct.conn, ptr %17, i32 0, i32 40
  %19 = load i16, ptr %18, align 8, !tbaa !53
  %20 = sext i16 %19 to i32
  %21 = icmp eq i32 %20, 0
  br i1 %21, label %28, label %22

22:                                               ; preds = %16
  %23 = load ptr, ptr %6, align 8, !tbaa !4
  %24 = getelementptr inbounds nuw %struct.conn, ptr %23, i32 0, i32 40
  %25 = load i16, ptr %24, align 8, !tbaa !53
  %26 = sext i16 %25 to i32
  %27 = icmp eq i32 %26, 12
  br i1 %27, label %28, label %45

28:                                               ; preds = %22, %16, %5
  %29 = load ptr, ptr %6, align 8, !tbaa !4
  %30 = load i32, ptr %8, align 4, !tbaa !30
  %31 = trunc i32 %30 to i8
  %32 = load i32, ptr %9, align 4, !tbaa !30
  %33 = trunc i32 %32 to i16
  %34 = load i32, ptr %10, align 4, !tbaa !30
  call void @add_bin_header(ptr noundef %29, i16 noundef zeroext 0, i8 noundef zeroext %31, i16 noundef zeroext %33, i32 noundef %34)
  call void @llvm.lifetime.start.p0(i64 8, ptr %11) #8
  %35 = load ptr, ptr %6, align 8, !tbaa !4
  %36 = getelementptr inbounds nuw %struct.conn, ptr %35, i32 0, i32 21
  %37 = load ptr, ptr %36, align 8, !tbaa !66
  store ptr %37, ptr %11, align 8, !tbaa !82
  %38 = load i32, ptr %10, align 4, !tbaa !30
  %39 = icmp sgt i32 %38, 0
  br i1 %39, label %40, label %44

40:                                               ; preds = %28
  %41 = load ptr, ptr %11, align 8, !tbaa !82
  %42 = load ptr, ptr %7, align 8, !tbaa !70
  %43 = load i32, ptr %10, align 4, !tbaa !30
  call void @resp_add_iov(ptr noundef %41, ptr noundef %42, i32 noundef %43)
  br label %44

44:                                               ; preds = %40, %28
  call void @llvm.lifetime.end.p0(i64 8, ptr %11) #8
  br label %45

45:                                               ; preds = %44, %22
  %46 = load ptr, ptr %6, align 8, !tbaa !4
  call void @conn_set_state(ptr noundef %46, i32 noundef 1)
  ret void
}

; Function Attrs: nounwind uwtable
define internal void @init_sasl_conn(ptr noundef %0) #0 {
  %2 = alloca ptr, align 8
  %3 = alloca i32, align 4
  store ptr %0, ptr %2, align 8, !tbaa !4
  %4 = load i8, ptr getelementptr inbounds nuw (%struct.settings, ptr @settings, i32 0, i32 25), align 4, !tbaa !78, !range !58, !noundef !59
  %5 = trunc i8 %4 to i1
  br i1 %5, label %7, label %6

6:                                                ; preds = %1
  br label %27

7:                                                ; preds = %1
  %8 = load ptr, ptr %2, align 8, !tbaa !4
  %9 = getelementptr inbounds nuw %struct.conn, ptr %8, i32 0, i32 3
  store i8 0, ptr %9, align 1, !tbaa !64
  %10 = load ptr, ptr %2, align 8, !tbaa !4
  %11 = getelementptr inbounds nuw %struct.conn, ptr %10, i32 0, i32 0
  %12 = load ptr, ptr %11, align 8, !tbaa !86
  %13 = icmp ne ptr %12, null
  br i1 %13, label %27, label %14

14:                                               ; preds = %7
  call void @llvm.lifetime.start.p0(i64 4, ptr %3) #8
  store i32 1, ptr %3, align 4, !tbaa !30
  %15 = load i32, ptr %3, align 4, !tbaa !30
  %16 = icmp ne i32 %15, 0
  br i1 %16, label %17, label %26

17:                                               ; preds = %14
  %18 = load i32, ptr getelementptr inbounds nuw (%struct.settings, ptr @settings, i32 0, i32 5), align 8, !tbaa !62
  %19 = icmp ne i32 %18, 0
  br i1 %19, label %20, label %23

20:                                               ; preds = %17
  %21 = load ptr, ptr @stderr, align 8, !tbaa !28
  %22 = call i32 (ptr, ptr, ...) @fprintf(ptr noundef %21, ptr noundef @.str.26) #8
  br label %23

23:                                               ; preds = %20, %17
  %24 = load ptr, ptr %2, align 8, !tbaa !4
  %25 = getelementptr inbounds nuw %struct.conn, ptr %24, i32 0, i32 0
  store ptr null, ptr %25, align 8, !tbaa !86
  br label %26

26:                                               ; preds = %23, %14
  call void @llvm.lifetime.end.p0(i64 4, ptr %3) #8
  br label %27

27:                                               ; preds = %6, %26, %7
  ret void
}

; Function Attrs: nounwind uwtable
define dso_local void @write_bin_error(ptr noundef %0, i32 noundef %1, ptr noundef %2, i32 noundef %3) #0 {
  %5 = alloca ptr, align 8
  %6 = alloca i32, align 4
  %7 = alloca ptr, align 8
  %8 = alloca i32, align 4
  %9 = alloca i64, align 8
  store ptr %0, ptr %5, align 8, !tbaa !4
  store i32 %1, ptr %6, align 4, !tbaa !30
  store ptr %2, ptr %7, align 8, !tbaa !61
  store i32 %3, ptr %8, align 4, !tbaa !30
  call void @llvm.lifetime.start.p0(i64 8, ptr %9) #8
  %10 = load ptr, ptr %7, align 8, !tbaa !61
  %11 = icmp ne ptr %10, null
  br i1 %11, label %31, label %12

12:                                               ; preds = %4
  %13 = load i32, ptr %6, align 4, !tbaa !30
  switch i32 %13, label %23 [
    i32 130, label %14
    i32 129, label %15
    i32 1, label %16
    i32 4, label %17
    i32 2, label %18
    i32 3, label %19
    i32 6, label %20
    i32 5, label %21
    i32 32, label %22
  ]

14:                                               ; preds = %12
  store ptr @.str.6, ptr %7, align 8, !tbaa !61
  br label %30

15:                                               ; preds = %12
  store ptr @.str.7, ptr %7, align 8, !tbaa !61
  br label %30

16:                                               ; preds = %12
  store ptr @.str.8, ptr %7, align 8, !tbaa !61
  br label %30

17:                                               ; preds = %12
  store ptr @.str.9, ptr %7, align 8, !tbaa !61
  br label %30

18:                                               ; preds = %12
  store ptr @.str.10, ptr %7, align 8, !tbaa !61
  br label %30

19:                                               ; preds = %12
  store ptr @.str.11, ptr %7, align 8, !tbaa !61
  br label %30

20:                                               ; preds = %12
  store ptr @.str.12, ptr %7, align 8, !tbaa !61
  br label %30

21:                                               ; preds = %12
  store ptr @.str.13, ptr %7, align 8, !tbaa !61
  br label %30

22:                                               ; preds = %12
  store ptr @.str.14, ptr %7, align 8, !tbaa !61
  br label %30

23:                                               ; preds = %12
  store ptr @.str.15, ptr %7, align 8, !tbaa !61
  %24 = load ptr, ptr @stderr, align 8, !tbaa !28
  %25 = load ptr, ptr %5, align 8, !tbaa !4
  %26 = getelementptr inbounds nuw %struct.conn, ptr %25, i32 0, i32 1
  %27 = load i32, ptr %26, align 8, !tbaa !42
  %28 = load i32, ptr %6, align 4, !tbaa !30
  %29 = call i32 (ptr, ptr, ...) @fprintf(ptr noundef %24, ptr noundef @.str.16, i32 noundef %27, i32 noundef %28) #8
  br label %30

30:                                               ; preds = %23, %22, %21, %20, %19, %18, %17, %16, %15, %14
  br label %31

31:                                               ; preds = %30, %4
  %32 = load i32, ptr getelementptr inbounds nuw (%struct.settings, ptr @settings, i32 0, i32 5), align 8, !tbaa !62
  %33 = icmp sgt i32 %32, 1
  br i1 %33, label %34, label %41

34:                                               ; preds = %31
  %35 = load ptr, ptr @stderr, align 8, !tbaa !28
  %36 = load ptr, ptr %5, align 8, !tbaa !4
  %37 = getelementptr inbounds nuw %struct.conn, ptr %36, i32 0, i32 1
  %38 = load i32, ptr %37, align 8, !tbaa !42
  %39 = load ptr, ptr %7, align 8, !tbaa !61
  %40 = call i32 (ptr, ptr, ...) @fprintf(ptr noundef %35, ptr noundef @.str.17, i32 noundef %38, ptr noundef %39) #8
  br label %41

41:                                               ; preds = %34, %31
  %42 = load ptr, ptr %7, align 8, !tbaa !61
  %43 = call i64 @strlen(ptr noundef %42) #9
  store i64 %43, ptr %9, align 8, !tbaa !41
  %44 = load ptr, ptr %5, align 8, !tbaa !4
  %45 = load i32, ptr %6, align 4, !tbaa !30
  %46 = trunc i32 %45 to i16
  %47 = load i64, ptr %9, align 8, !tbaa !41
  %48 = trunc i64 %47 to i32
  call void @add_bin_header(ptr noundef %44, i16 noundef zeroext %46, i8 noundef zeroext 0, i16 noundef zeroext 0, i32 noundef %48)
  %49 = load i64, ptr %9, align 8, !tbaa !41
  %50 = icmp ugt i64 %49, 0
  br i1 %50, label %51, label %58

51:                                               ; preds = %41
  %52 = load ptr, ptr %5, align 8, !tbaa !4
  %53 = getelementptr inbounds nuw %struct.conn, ptr %52, i32 0, i32 21
  %54 = load ptr, ptr %53, align 8, !tbaa !66
  %55 = load ptr, ptr %7, align 8, !tbaa !61
  %56 = load i64, ptr %9, align 8, !tbaa !41
  %57 = trunc i64 %56 to i32
  call void @resp_add_iov(ptr noundef %54, ptr noundef %55, i32 noundef %57)
  br label %58

58:                                               ; preds = %51, %41
  %59 = load i32, ptr %8, align 4, !tbaa !30
  %60 = icmp sgt i32 %59, 0
  br i1 %60, label %61, label %66

61:                                               ; preds = %58
  %62 = load i32, ptr %8, align 4, !tbaa !30
  %63 = load ptr, ptr %5, align 8, !tbaa !4
  %64 = getelementptr inbounds nuw %struct.conn, ptr %63, i32 0, i32 26
  store i32 %62, ptr %64, align 8, !tbaa !81
  %65 = load ptr, ptr %5, align 8, !tbaa !4
  call void @conn_set_state(ptr noundef %65, i32 noundef 7)
  br label %68

66:                                               ; preds = %58
  %67 = load ptr, ptr %5, align 8, !tbaa !4
  call void @conn_set_state(ptr noundef %67, i32 noundef 9)
  br label %68

68:                                               ; preds = %66, %61
  call void @llvm.lifetime.end.p0(i64 8, ptr %9) #8
  ret void
}

; Function Attrs: nounwind uwtable
define internal void @bin_list_sasl_mechs(ptr noundef %0) #0 {
  %2 = alloca ptr, align 8
  %3 = alloca ptr, align 8
  %4 = alloca i32, align 4
  %5 = alloca i32, align 4
  %6 = alloca i32, align 4
  store ptr %0, ptr %2, align 8, !tbaa !4
  %7 = load i8, ptr getelementptr inbounds nuw (%struct.settings, ptr @settings, i32 0, i32 25), align 4, !tbaa !78, !range !58, !noundef !59
  %8 = trunc i8 %7 to i1
  br i1 %8, label %21, label %9

9:                                                ; preds = %1
  %10 = load ptr, ptr %2, align 8, !tbaa !4
  %11 = load ptr, ptr %2, align 8, !tbaa !4
  %12 = getelementptr inbounds nuw %struct.conn, ptr %11, i32 0, i32 37
  %13 = getelementptr inbounds nuw %struct.anon.9, ptr %12, i32 0, i32 6
  %14 = load i32, ptr %13, align 8, !tbaa !34
  %15 = load ptr, ptr %2, align 8, !tbaa !4
  %16 = getelementptr inbounds nuw %struct.conn, ptr %15, i32 0, i32 37
  %17 = getelementptr inbounds nuw %struct.anon.9, ptr %16, i32 0, i32 2
  %18 = load i16, ptr %17, align 2, !tbaa !34
  %19 = zext i16 %18 to i32
  %20 = sub i32 %14, %19
  call void @write_bin_error(ptr noundef %10, i32 noundef 129, ptr noundef null, i32 noundef %20)
  br label %39

21:                                               ; preds = %1
  %22 = load ptr, ptr %2, align 8, !tbaa !4
  call void @init_sasl_conn(ptr noundef %22)
  call void @llvm.lifetime.start.p0(i64 8, ptr %3) #8
  store ptr null, ptr %3, align 8, !tbaa !61
  call void @llvm.lifetime.start.p0(i64 4, ptr %4) #8
  store i32 0, ptr %4, align 4, !tbaa !30
  call void @llvm.lifetime.start.p0(i64 4, ptr %5) #8
  store i32 1, ptr %5, align 4, !tbaa !30
  %23 = load i32, ptr %5, align 4, !tbaa !30
  %24 = icmp ne i32 %23, 0
  br i1 %24, label %25, label %33

25:                                               ; preds = %21
  %26 = load i32, ptr getelementptr inbounds nuw (%struct.settings, ptr @settings, i32 0, i32 5), align 8, !tbaa !62
  %27 = icmp ne i32 %26, 0
  br i1 %27, label %28, label %31

28:                                               ; preds = %25
  %29 = load ptr, ptr @stderr, align 8, !tbaa !28
  %30 = call i32 (ptr, ptr, ...) @fprintf(ptr noundef %29, ptr noundef @.str.59) #8
  br label %31

31:                                               ; preds = %28, %25
  %32 = load ptr, ptr %2, align 8, !tbaa !4
  call void @write_bin_error(ptr noundef %32, i32 noundef 32, ptr noundef null, i32 noundef 0)
  store i32 1, ptr %6, align 4
  br label %37

33:                                               ; preds = %21
  %34 = load ptr, ptr %2, align 8, !tbaa !4
  %35 = load ptr, ptr %3, align 8, !tbaa !61
  %36 = load i32, ptr %4, align 4, !tbaa !30
  call void @write_bin_response(ptr noundef %34, ptr noundef %35, i32 noundef 0, i32 noundef 0, i32 noundef %36)
  store i32 0, ptr %6, align 4
  br label %37

37:                                               ; preds = %33, %31
  call void @llvm.lifetime.end.p0(i64 4, ptr %5) #8
  call void @llvm.lifetime.end.p0(i64 4, ptr %4) #8
  call void @llvm.lifetime.end.p0(i64 8, ptr %3) #8
  %38 = load i32, ptr %6, align 4
  switch i32 %38, label %40 [
    i32 0, label %39
    i32 1, label %39
  ]

39:                                               ; preds = %9, %37, %37
  ret void

40:                                               ; preds = %37
  unreachable
}