; Function Attrs: nounwind uwtable
define internal fastcc void @bin_list_sasl_mechs(ptr noundef %0) unnamed_addr #0 {
  %2 = load i8, ptr getelementptr inbounds nuw (i8, ptr @settings, i64 132), align 4, !tbaa !61, !range !53, !noundef !54
  %3 = trunc nuw i8 %2 to i1
  br i1 %3, label %24, label %4

4:                                                ; preds = %1
  %5 = getelementptr inbounds nuw i8, ptr %0, i64 344
  %6 = load i32, ptr %5, align 8, !tbaa !28
  %7 = getelementptr inbounds nuw i8, ptr %0, i64 338
  %8 = load i16, ptr %7, align 2, !tbaa !28
  %9 = zext i16 %8 to i32
  %10 = sub i32 %6, %9
  %11 = load i32, ptr getelementptr inbounds nuw (i8, ptr @settings, i64 32), align 8, !tbaa !57
  %12 = icmp sgt i32 %11, 1
  br i1 %12, label %13, label %18

13:                                               ; preds = %4
  %14 = load ptr, ptr @stderr, align 8, !tbaa !58
  %15 = getelementptr inbounds nuw i8, ptr %0, i64 8
  %16 = load i32, ptr %15, align 8, !tbaa !37
  %17 = tail call i32 (ptr, ptr, ...) @fprintf(ptr noundef %14, ptr noundef nonnull @.str.17, i32 noundef %16, ptr noundef nonnull @.str.7) #12
  br label %18

18:                                               ; preds = %13, %4
  tail call fastcc void @add_bin_header(ptr noundef nonnull %0, i16 noundef zeroext 129, i8 noundef zeroext 0, i16 noundef zeroext 0, i32 noundef 15)
  %19 = getelementptr inbounds nuw i8, ptr %0, i64 208
  %20 = load ptr, ptr %19, align 8, !tbaa !60
  tail call void @resp_add_iov(ptr noundef %20, ptr noundef nonnull @.str.7, i32 noundef 15) #11
  %21 = icmp sgt i32 %10, 0
  br i1 %21, label %22, label %write_bin_error.exit

22:                                               ; preds = %18
  %23 = getelementptr inbounds nuw i8, ptr %0, i64 248
  store i32 %10, ptr %23, align 8, !tbaa !64
  br label %write_bin_error.exit

24:                                               ; preds = %1
  %25 = getelementptr inbounds nuw i8, ptr %0, i64 13
  store i8 0, ptr %25, align 1, !tbaa !62
  %26 = load ptr, ptr %0, align 8, !tbaa !63
  %.not.i = icmp eq ptr %26, null
  %.pre11 = load i32, ptr getelementptr inbounds nuw (i8, ptr @settings, i64 32), align 8, !tbaa !57
  br i1 %.not.i, label %27, label %init_sasl_conn.exit

27:                                               ; preds = %24
  %.not3.i = icmp eq i32 %.pre11, 0
  br i1 %.not3.i, label %31, label %28

28:                                               ; preds = %27
  %29 = load ptr, ptr @stderr, align 8, !tbaa !58
  %30 = tail call i64 @fwrite(ptr nonnull @.str.26, i64 32, i64 1, ptr %29) #13
  %.pre.pre = load i32, ptr getelementptr inbounds nuw (i8, ptr @settings, i64 32), align 8, !tbaa !57
  br label %31

31:                                               ; preds = %28, %27
  %.pre = phi i32 [ %.pre.pre, %28 ], [ 0, %27 ]
  store ptr null, ptr %0, align 8, !tbaa !63
  br label %init_sasl_conn.exit

init_sasl_conn.exit:                              ; preds = %24, %31
  %32 = phi i32 [ %.pre11, %24 ], [ %.pre, %31 ]
  %.not = icmp eq i32 %32, 0
  br i1 %.not, label %.thread, label %33

33:                                               ; preds = %init_sasl_conn.exit
  %34 = load ptr, ptr @stderr, align 8, !tbaa !58
  %35 = tail call i64 @fwrite(ptr nonnull @.str.59, i64 32, i64 1, ptr %34) #13
  %.pr = load i32, ptr getelementptr inbounds nuw (i8, ptr @settings, i64 32), align 8, !tbaa !57
  %36 = icmp sgt i32 %.pr, 1
  br i1 %36, label %37, label %.thread

37:                                               ; preds = %33
  %38 = load ptr, ptr @stderr, align 8, !tbaa !58
  %39 = getelementptr inbounds nuw i8, ptr %0, i64 8
  %40 = load i32, ptr %39, align 8, !tbaa !37
  %41 = tail call i32 (ptr, ptr, ...) @fprintf(ptr noundef %38, ptr noundef nonnull @.str.17, i32 noundef %40, ptr noundef nonnull @.str.14) #12
  br label %.thread

.thread:                                          ; preds = %init_sasl_conn.exit, %37, %33
  tail call fastcc void @add_bin_header(ptr noundef nonnull %0, i16 noundef zeroext 32, i8 noundef zeroext 0, i16 noundef zeroext 0, i32 noundef 13)
  %42 = getelementptr inbounds nuw i8, ptr %0, i64 208
  %43 = load ptr, ptr %42, align 8, !tbaa !60
  tail call void @resp_add_iov(ptr noundef %43, ptr noundef nonnull @.str.14, i32 noundef 13) #11
  br label %write_bin_error.exit

write_bin_error.exit:                             ; preds = %22, %18, %.thread
  %.sink = phi i32 [ 9, %.thread ], [ 7, %22 ], [ 9, %18 ]
  tail call void @conn_set_state(ptr noundef nonnull %0, i32 noundef %.sink) #11
  ret void
}